; Function Attrs: nounwind uwtable
define internal range(i32 -12, 1) i32 @config_input(ptr noundef %0) #1 {
  %2 = getelementptr inbounds nuw i8, ptr %0, i64 16
  %3 = load ptr, ptr %2, align 8, !tbaa !47
  %4 = getelementptr inbounds nuw i8, ptr %3, i64 72
  %5 = load ptr, ptr %4, align 8, !tbaa !4
  %6 = getelementptr inbounds nuw i8, ptr %0, i64 64
  %7 = load i32, ptr %6, align 8, !tbaa !23
  %8 = sdiv i32 %7, 10
  %9 = tail call ptr @ff_get_audio_buffer(ptr noundef %0, i32 noundef %8) #9
  %10 = getelementptr inbounds nuw i8, ptr %5, i64 176
  store ptr %9, ptr %10, align 8, !tbaa !60
  %11 = tail call ptr @ff_get_audio_buffer(ptr noundef %0, i32 noundef 3) #9
  %12 = getelementptr inbounds nuw i8, ptr %5, i64 168
  store ptr %11, ptr %12, align 8, !tbaa !61
  %13 = getelementptr inbounds nuw i8, ptr %0, i64 76
  %14 = load i32, ptr %13, align 4, !tbaa !59
  %15 = sext i32 %14 to i64
  %16 = tail call noalias ptr @av_calloc(i64 noundef %15, i64 noundef 4) #9
  %17 = getelementptr inbounds nuw i8, ptr %5, i64 152
  store ptr %16, ptr %17, align 8, !tbaa !62
  %18 = load ptr, ptr %10, align 8, !tbaa !60
  %.not = icmp eq ptr %18, null
  br i1 %.not, label %60, label %19

19:                                               ; preds = %1
  %20 = load ptr, ptr %12, align 8, !tbaa !61
  %.not13 = icmp eq ptr %20, null
  %.not14 = icmp eq ptr %16, null
  %or.cond = select i1 %.not13, i1 true, i1 %.not14
  br i1 %or.cond, label %60, label %21

21:                                               ; preds = %19
  %22 = getelementptr i8, ptr %3, i64 32
  %.val = load ptr, ptr %22, align 8, !tbaa !20
  %.val15 = load ptr, ptr %4, align 8, !tbaa !4
  %.val.val = load ptr, ptr %.val, align 8, !tbaa !21
  %23 = getelementptr i8, ptr %.val.val, i64 64
  %.val.val.val = load i32, ptr %23, align 8, !tbaa !23
  %24 = getelementptr inbounds nuw i8, ptr %.val15, i64 56
  %25 = load double, ptr %24, align 8, !tbaa !32
  %26 = fmul nsz double %25, 0x401921FB54442D18
  %27 = sitofp i32 %.val.val.val to double
  %28 = fdiv nsz double %26, %27
  %29 = tail call nsz double @llvm.sin.f64(double %28)
  %30 = fmul nsz double %29, 5.000000e-01
  %31 = getelementptr inbounds nuw i8, ptr %.val15, i64 64
  %32 = load double, ptr %31, align 8, !tbaa !37
  %33 = fdiv nsz double 1.000000e+00, %32
  %34 = fadd nsz double %33, -1.000000e+00
  %35 = tail call nsz double @llvm.fmuladd.f64(double %34, double 2.000000e+00, double 2.000000e+00)
  %36 = tail call nsz double @llvm.sqrt.f64(double %35)
  %37 = fmul nsz double %30, %36
  %38 = fadd nsz double %37, 1.000000e+00
  %39 = getelementptr inbounds nuw i8, ptr %.val15, i64 72
  store double %38, ptr %39, align 8, !tbaa !38
  %40 = tail call nsz double @llvm.cos.f64(double %28)
  %41 = fmul nsz double %40, -2.000000e+00
  %42 = getelementptr inbounds nuw i8, ptr %.val15, i64 80
  %43 = fsub nsz double 1.000000e+00, %37
  %44 = getelementptr inbounds nuw i8, ptr %.val15, i64 88
  %45 = fsub nsz double 1.000000e+00, %40
  %46 = fmul nsz double %45, 5.000000e-01
  %47 = getelementptr inbounds nuw i8, ptr %.val15, i64 96
  %48 = getelementptr inbounds nuw i8, ptr %.val15, i64 104
  %49 = getelementptr inbounds nuw i8, ptr %.val15, i64 112
  %50 = fdiv nsz double %41, %38
  store double %50, ptr %42, align 8, !tbaa !39
  %51 = fdiv nsz double %43, %38
  store double %51, ptr %44, align 8, !tbaa !40
  %52 = fdiv nsz double %46, %38
  store double %52, ptr %47, align 8, !tbaa !41
  %53 = fdiv nsz double %45, %38
  store double %53, ptr %48, align 8, !tbaa !42
  store double %52, ptr %49, align 8, !tbaa !43
  %54 = getelementptr inbounds nuw i8, ptr %.val15, i64 48
  %55 = load double, ptr %54, align 8, !tbaa !44
  %56 = fmul nsz double %55, %27
  %57 = fdiv nsz double %56, 1.000000e+03
  %58 = fptosi double %57 to i32
  %59 = getelementptr inbounds nuw i8, ptr %.val15, i64 160
  store i32 %58, ptr %59, align 8, !tbaa !45
  br label %60

60:                                               ; preds = %1, %19, %21
  %.0 = phi i32 [ 0, %21 ], [ -12, %19 ], [ -12, %1 ]
  ret i32 %.0
}